; Function Attrs: mustprogress uwtable
define void @_ZN5osgeo4proj4util11PropertyMapC2ERKS2_(ptr nocapture noundef nonnull writeonly align 8 dereferenceable(8) %0, ptr nocapture noundef nonnull readonly align 8 dereferenceable(8) %1) unnamed_addr #0 align 2 personality ptr @__gxx_personality_v0 {
  %3 = load ptr, ptr %1, align 8
  tail call void @llvm.experimental.noalias.scope.decl(metadata !67)
  %4 = tail call noalias noundef nonnull dereferenceable(24) ptr @_Znwm(i64 noundef 24) #23, !noalias !67
  invoke void @_ZNSt7__cxx114listISt4pairINS_12basic_stringIcSt11char_traitsIcESaIcEEEN5osgeo4proj4util15BaseObjectNNPtrEESaISB_EEC2ERKSD_(ptr noundef nonnull align 8 dereferenceable(24) %4, ptr noundef nonnull align 8 dereferenceable(24) %3)
          to label %_ZN5osgeo4proj8internal11make_uniqueINS0_4util11PropertyMap7PrivateEJRS5_EEESt10unique_ptrIT_St14default_deleteIS8_EEDpOT0_.exit unwind label %5, !noalias !67

5:                                                ; preds = %2
  %6 = landingpad { ptr, i32 }
          cleanup
  tail call void @_ZdlPv(ptr noundef nonnull %4) #25, !noalias !67
  resume { ptr, i32 } %6

_ZN5osgeo4proj8internal11make_uniqueINS0_4util11PropertyMap7PrivateEJRS5_EEESt10unique_ptrIT_St14default_deleteIS8_EEDpOT0_.exit: ; preds = %2
  store ptr %4, ptr %0, align 8, !alias.scope !67
  ret void
}